(dp0
S'Young Kil Park'
p1
S'Young Kil Park(ypark7@empal.com)'
p2
sS'Pierre Wattiau'
p3
S'Pierre Wattiau(Pierre.Wattiau@var.fgov.be)'
p4
sS'Wolfgang Beyer'
p5
S'Wolfgang Beyer(wolfgang.beyer@uni-hohenheim.de)'
p6
sS'Joachim Frey'
p7
S'Joachim Frey(joachim.frey@vbi.unibe.ch)'
p8
sS'Igor Mokrousov'
p9
S'Igor Mokrousov(imokrousov@mail.ru)'
p10
sS'Rafal Gierczynski'
p11
S'Rafal Gierczynski(rgierczynski@pzh.gov.pl)'
p12
sS'Paul Keim'
p13
S'Paul Keim(Paul.Keim@nau.edu)'
p14
sS'Sylvain Godreuil'
p15
S'Sylvain Godreuil(godreuil@yahoo.fr)'
p16
sS'Noelia Alonso-Rodr\xc3\xadguez'
p17
S'Noelia Alonso-Rodr\xc3\xadguez(noelialonsor@yahoo.es)'
p18
sS'Joloba Moses'
p19
S'Joloba Moses(moses.joloba@case.edu)'
p20
sS'Paul Freidlin'
p21
S'Paul Freidlin(paul.freidlin@phlta.health.gov.il)'
p22
sS'Simon Godreuil'
p23
S'Simon Godreuil(s-godreuil@chu-montpellier.fr)'
p24
sS'Raoult'
p25
S'Raoult(didier.raoult@gmail.com)'
p26
sS'Frances Jamieson'
p27
S'Frances Jamieson(Frances.Jamieson@oahpp.ca)'
p28
sS'Mikl\xc3\xb3s Gyuranecz'
p29
S'Mikl\xc3\xb3s Gyuranecz(m.gyuranecz@gmail.com)'
p30
sS'R van Mansfeld'
p31
S'R van Mansfeld(R.vanmansfeld@umcutrecht.nl)'
p32
sS'Akiko Okutani'
p33
S'Akiko Okutani(okutani@nih.go.jp)'
p34
sS'Chulhun Chang'
p35
S'Chulhun Chang(cchl@pusan.ac.kr)'
p36
sS'David Christiany'
p37
S'David Christiany(david.christiany@i2bc.paris-saclay.fr)'
p38
sS'Lukas Fenner'
p39
S'Lukas Fenner(lfenner@ispm.unibe.ch)'
p40
sS'Catherine Arnold'
p41
S'Catherine Arnold(Catherine.Arnold@hpa.org.uk)'
p42
sS'Dick van Soolingen'
p43
S'Dick van Soolingen(D.van.soolingen@rivm.nl)'
p44
sS'Takayuki Wada'
p45
S'Takayuki Wada(taka-wada@city.osaka.lg.jp)'
p46
sS'John Ho'
p47
S'John Ho(jlho@med.cornell.edu)'
p48
sS'Harleen Grewal'
p49
S'Harleen Grewal(Harleen.Grewal@Gades.uib.no)'
p50
sS'Loubna Tazi'
p51
S'Loubna Tazi(lt247@byu.edu)'
p52
sS'Yingyu Chen'
p53
S'Yingyu Chen(chemyly@hotmail.com)'
p54
sS'Jacobus de Waard'
p55
S'Jacobus de Waard(jacobusdeward@gmail.com)'
p56
sS'Hua Wang'
p57
S'Hua Wang(hua@jscdc.cn)'
p58
sS'Sujatha Narayanan'
p59
S'Sujatha Narayanan(sujatha.sujatha36@gmail.com)'
p60
sS'Urska Bidovec-Stojkovic'
p61
S'Urska Bidovec-Stojkovic(urska.bidovec-stojkovic@klinika-golnik.si)'
p62
sS'Isabel Portugal'
p63
S'Isabel Portugal(isabel.portugal@ff.ul.pt)'
p64
sS'Antonio Fasanella'
p65
S'Antonio Fasanella(a.fasanella@izsfg.it)'
p66
sS'Karine Laroucau'
p67
S'Karine Laroucau(karine.laroucau@anses.fr)'
p68
sS'Samuel'
p69
S'Samuel(jsamuel@tamu.edu)'
p70
sS'Angkana Chaiprasert'
p71
S'Angkana Chaiprasert(siacp@mahidol.ac.th)'
p72
sS'Wan Kanglin'
p73
S'Wan Kanglin(klwan1217@163.com)'
p74
sS'Hee-Bok Oh'
p75
S'Hee-Bok Oh(hboh@nih.go.kr)'
p76
sS'Jason Evans'
p77
S'Jason Evans(jason.evans@heartofengland.nhs.uk)'
p78
sS'Gunilla K\xc3\xa4llenius'
p79
S'Gunilla K\xc3\xa4llenius(gunilla.kallenius@ki.se)'
p80
sS'Awewura Kwara'
p81
S'Awewura Kwara(Awewura_Kwara@brown.edu)'
p82
sS'Noelia Alonso-Rodriguez'
p83
S'Noelia Alonso-Rodriguez(noelialonsor@yahoo.es)'
p84
sS'Dissou Affolabi'
p85
S'Dissou Affolabi(affolabi_dissou@yahoo.fr)'
p86
sS'Shiang-Fen Huang'
p87
S'Shiang-Fen Huang(sfhuang.dr@gmail.com)'
p88
sS'Francis Drobniewski'
p89
S'Francis Drobniewski(f.drobniewski@qmul.ac.uk)'
p90
sS'Susanne Homolka'
p91
S'Susanne Homolka(shomolka@fz-borstel.de)'
p92
sS'R. M. Warren'
p93
S'R. M. Warren(rw1@sun.ac.za)'
p94
sS'Gilles Vergnaud'
p95
S'Gilles Vergnaud(gilles.vergnaud@u-psud.fr)'
p96
sS'Markus Antwerpen'
p97
S'Markus Antwerpen(markusantwerpen@bundeswehr.org)'
p98
sS'A Dong Shen'
p99
S'A Dong Shen(shenad@sohu.com)'
p100
sS'Jang-Jih Lu'
p101
S'Jang-Jih Lu(jjl@ndmctsgh.edu.tw)'
p102
sS'Prasit Palittapongarnpim'
p103
S'Prasit Palittapongarnpim(hrm@mail.tainantb.gov.tw)'
p104
sS'Daniele Daffonchio'
p105
S'Daniele Daffonchio(daniele.daffonchio@unimi.it)'
p106
sS'Beatrice Boniotti'
p107
S'Beatrice Boniotti(mariabeatrice.boniotti@bs.izs.it)'
p108
sS'Jeroen Tilburg'
p109
S'Jeroen Tilburg(j.tilburg@cwz.nl)'
p110
sS'Tomotada Iwamoto'
p111
S'Tomotada Iwamoto(kx2t-iwmt@asahi-net.or.jp)'
p112
sS'Nalin Rastogi'
p113
S'Nalin Rastogi(nrastogi@pasteur-guadeloupe.fr)'
p114
sS'Chuanyou Li'
p115
S'Chuanyou Li(lichuanyou6688@hotmail.com)'
p116
sS'Kirnpal Kaur Banga Singh'
p117
S'Kirnpal Kaur Banga Singh(kiren@kck.usm.my)'
p118
sS'Sang-Nae Cho'
p119
S'Sang-Nae Cho(raycho@yuhs.ac)'
p120
sS'Carlo Garzelli'
p121
S'Carlo Garzelli(garzelli@biomed.unipi.it)'
p122
sS'Andrea Von Groll'
p123
S'Andrea Von Groll(avongroll@itg.be)'
p124
sS'Rosilene Fressatti Cardoso'
p125
S'Rosilene Fressatti Cardoso(rfcardoso@uem.br)'
p126
sS'Sofia Samper'
p127
S'Sofia Samper(ssamper.iacs@aragon.es)'
p128
sS'Christine Pourcel'
p129
S'Christine Pourcel(christine.pourcel@u-psud.fr)'
p130
sS'Mesut Ortatatli'
p131
S'Mesut Ortatatli(mortatatli@gata.edu.tr)'
p132
sS'Chanda Mulenga'
p133
S'Chanda Mulenga(chandamulenga@yahoo.com)'
p134
sS'Nadya Markova'
p135
S'Nadya Markova(nadya.markova@gmail.com)'
p136
sS'Heinzen'
p137
S'Heinzen(rheinzen@niaid.nih.gov)'
p138
sS'Isdore Chola Shamputa'
p139
S'Isdore Chola Shamputa(icshamputa@itg.be)'
p140
sS'James T. Douglas'
p141
S'James T. Douglas(jtd379@gmail.com)'
p142
sS'Patricia P. Wilkins'
p143
S'Patricia P. Wilkins(PWilkins@cdc.gov)'
p144
sS'Lenie Dijkshoorn'
p145
S'Lenie Dijkshoorn(l.dijkshoorn@lumc.nl)'
p146
sS'Mohammad Asgharzadeh'
p147
S'Mohammad Asgharzadeh(asgharzadehmo@yahoo.com)'
p148
sS'Sergey Kovalev'
p149
S'Sergey Kovalev(sergey.kovalev@usu.ru)'
p150
sS'Chad Stratilo'
p151
S'Chad Stratilo(Chad.Stratilo@drdc-rddc.gc.ca)'
p152
sS'Shinji Maeda'
p153
S'Shinji Maeda(maeda@jata.or.jp)'
p154
sS'Martin Hugh-Jones'
p155
S'Martin Hugh-Jones(mehj@vetmed.lsu.edu)'
p156
sS'Sayera Banu'
p157
S'Sayera Banu(sbanu@icddrb.org)'
p158
sS'Simon Sunder'
p159
S'Simon Sunder(simsunder@hotmail.fr)'
p160
sS'Ann S. G. Lee'
p161
S'Ann S. G. Lee(dmslsg@nccs.com.sg)'
p162
sS'Jack T. Crawford'
p163
S'Jack T. Crawford(JCrawford@cdc.gov)'
p164
sS'Alicia Aranaz'
p165
S'Alicia Aranaz(alaranaz@vet.ucm.es)'
p166
sS'Fran\xc3\xa7oise Portaels'
p167
S'Fran\xc3\xa7oise Portaels(portaels@itg.be)'
p168
sS'Kym Blackwood'
p169
S'Kym Blackwood(kym_blackwood@hc-sc.gc.ca)'
p170
sS'Qian Gao'
p171
S'Qian Gao(qgao99@yahoo.com)'
p172
sS'Siguo Liu'
p173
S'Siguo Liu(siguo_liu@yahoo.com.cn)'
p174
sS'Yanlin Zhao'
p175
S'Yanlin Zhao(zhaoyanlin@chinatb.org)'
p176
sS'Roberta Creti'
p177
S'Roberta Creti(roberta.creti@iss.it)'
p178
sS'Tomasz Chmielewski'
p179
S'Tomasz Chmielewski(tchmielewski@pzh.gov.pl)'
p180
sS'Yong Jiang Sun'
p181
S'Yong Jiang Sun(Yong_Jiang_Sun@ttsh.com.sg)'
p182
sS'Christophe Sola'
p183
S'Christophe Sola(christophe.sola@u-psud.fr)'
p184
sS'Dar\xc3\xado G de Viedma'
p185
S'Dar\xc3\xado G de Viedma(dgviedma2@gmail.com)'
p186
sS'Giuliano Garofolo'
p187
S'Giuliano Garofolo(ggarofolo@libero.it)'
p188
sS'Vincent Perreten'
p189
S'Vincent Perreten(vincent.perreten@vbi.unibe.ch)'
p190
sS'Cristina Gutierrez'
p191
S'Cristina Gutierrez(crisgupe@pasteur.fr)'
p192
sS"Maxim Afanas\\'ev"
p193
S"Maxim Afanas\\'ev(afanasev_max@mail.ru)"
p194
sS'Maryse Fauville-Dufaux'
p195
S'Maryse Fauville-Dufaux(mfauville@pasteur.be)'
p196
sS'A. Umubyeyi'
p197
S'A. Umubyeyi(alainenyaruhirira@hotmail.com)'
p198
sS'Philip Supply'
p199
S'Philip Supply(Philip.Supply@pasteur-lille.fr)'
p200
sS'Angelo Mazzaglia'
p201
S'Angelo Mazzaglia(angmazza@unitus.it)'
p202
sS'Howard Takiff'
p203
S'Howard Takiff(htakiff@ivic.ve)'
p204
sS'Muayad A. Merza'
p205
S'Muayad A. Merza(muayadfaily@yahoo.com)'
p206
sS'Peter Hawkey'
p207
S'Peter Hawkey(peter.hawkey@heartsol.wmids.nhs.uk)'
p208
sS'Sara Christianson'
p209
S'Sara Christianson(sara_christianson@phac-aspc.gc.ca)'
p210
sS'Alex R. Hoffmaster'
p211
S'Alex R. Hoffmaster(amh9@cdc.gov)'
p212
sS'Henk van Deutekom'
p213
S'Henk van Deutekom(hvdeutekom@gggd.amsterdam.nl)'
p214
sS'Jorge Gonzalez-y-Merchand'
p215
S'Jorge Gonzalez-y-Merchand(jgonzal1212@hotmail.com)'
p216
sS'Riza Durmaz'
p217
S'Riza Durmaz(rizadurmaz@ymail.com)'
p218
sS'Clifton Barry'
p219
S'Clifton Barry(cbarry@mail.nih.gov)'
p220
sS'Ruay-Ming Huang'
p221
S'Ruay-Ming Huang(hrm@mail.tainantb.gov.tw)'
p222
s.